target datalayout = "e-m:e-p270:32:32-p271:32:32-p272:64:64-i64:64-i128:128-f80:128-n8:16:32:64-S128"
target triple = "x86_64-pc-linux-gnu"

%"struct.ArchiveHeapWriter::NativePointerInfo" = type { ptr, i32 }

@_ZN17ArchiveHeapWriter16_native_pointersE = hidden global ptr null, align 8
@_ZL16_num_native_ptrs = internal global i32 0, align 4

; Function Attrs: mustprogress nounwind uwtable
define hidden void @_ZN17ArchiveHeapWriter19mark_native_pointerEP7oopDesci(ptr noundef %0, i32 noundef %1) #1 align 2 {
  %3 = alloca ptr, align 8
  %4 = alloca i32, align 4
  %5 = alloca ptr, align 8
  %6 = alloca %"struct.ArchiveHeapWriter::NativePointerInfo", align 8
  store ptr %0, ptr %3, align 8
  store i32 %1, ptr %4, align 4
  %7 = load ptr, ptr %3, align 8
  %8 = load i32, ptr %4, align 4
  %9 = call noundef ptr @_ZNK7oopDesc22metadata_field_acquireEi(ptr noundef nonnull align 8 dereferenceable(16) %7, i32 noundef %8)
  store ptr %9, ptr %5, align 8
  %10 = load ptr, ptr %5, align 8
  %11 = icmp ne ptr %10, null
  br i1 %11, label %12, label %22

12:                                               ; preds = %2
  %13 = load ptr, ptr %3, align 8
  %14 = getelementptr inbounds %"struct.ArchiveHeapWriter::NativePointerInfo", ptr %6, i32 0, i32 0
  store ptr %13, ptr %14, align 8
  %15 = load i32, ptr %4, align 4
  %16 = getelementptr inbounds %"struct.ArchiveHeapWriter::NativePointerInfo", ptr %6, i32 0, i32 1
  store i32 %15, ptr %16, align 8
  %17 = load ptr, ptr @_ZN17ArchiveHeapWriter16_native_pointersE, align 8
  %18 = call noundef i32 @_ZN26GrowableArrayWithAllocatorIN17ArchiveHeapWriter17NativePointerInfoE18GrowableArrayCHeapIS1_L8MEMFLAGS13EEE6appendERKS1_(ptr noundef nonnull align 8 dereferenceable(16) %17, ptr noundef nonnull align 8 dereferenceable(16) %6)
  %19 = load ptr, ptr %3, align 8
  call void @_ZN10HeapShared23set_has_native_pointersEP7oopDesc(ptr noundef %19)
  %20 = load i32, ptr @_ZL16_num_native_ptrs, align 4
  %21 = add nsw i32 %20, 1
  store i32 %21, ptr @_ZL16_num_native_ptrs, align 4
  br label %22

22:                                               ; preds = %12, %2
  ret void
}