; Function Attrs: mustprogress nounwind uwtable
define hidden void @_ZN17ArchiveHeapWriter19mark_native_pointerEP7oopDesci(ptr noundef nonnull %0, i32 noundef %1) local_unnamed_addr #0 align 2 {
  %3 = alloca %"struct.ArchiveHeapWriter::NativePointerInfo", align 8
  %4 = tail call noundef ptr @_ZNK7oopDesc22metadata_field_acquireEi(ptr noundef nonnull align 8 dereferenceable(16) %0, i32 noundef %1) #18
  %.not = icmp eq ptr %4, null
  br i1 %.not, label %11, label %5

5:                                                ; preds = %2
  store ptr %0, ptr %3, align 8
  %6 = getelementptr inbounds i8, ptr %3, i64 8
  store i32 %1, ptr %6, align 8
  %7 = load ptr, ptr @_ZN17ArchiveHeapWriter16_native_pointersE, align 8
  %8 = call noundef i32 @_ZN26GrowableArrayWithAllocatorIN17ArchiveHeapWriter17NativePointerInfoE18GrowableArrayCHeapIS1_L8MEMFLAGS13EEE6appendERKS1_(ptr noundef nonnull align 8 dereferenceable(16) %7, ptr noundef nonnull align 8 dereferenceable(16) %3)
  call void @_ZN10HeapShared23set_has_native_pointersEP7oopDesc(ptr noundef nonnull %0) #18
  %9 = load i32, ptr @_ZL16_num_native_ptrs, align 4
  %10 = add nsw i32 %9, 1
  store i32 %10, ptr @_ZL16_num_native_ptrs, align 4
  br label %11

11:                                               ; preds = %5, %2
  ret void
}